(lp1
(lp2
S'QuadraticDiscriminantAnalysis'
p3
aS'LogisticRegression'
p4
aS'LinearDiscriminantAnalysis'
p5
aS'SVC'
p6
aS'Ensemble'
p7
aa(lp8
S'74.97%'
p9
aS'77.14%'
p10
aS'76.93%'
p11
aS'76.67%'
p12
aS'77.11%'
p13
aa.