(lp1
(lp2
S'QuadraticDiscriminantAnalysis'
p3
aS'LogisticRegression'
p4
aS'LinearDiscriminantAnalysis'
p5
aS'SVC'
p6
aS'Ensemble'
p7
aa(lp8
S'74.29%'
p9
aS'75.26%'
p10
aS'75.15%'
p11
aS'75.52%'
p12
aS'75.59%'
p13
aa.