(lp1
Viid
p2
aVid
p3
aVgender
p4
aVidg
p5
aVcondtn
p6
aVwave
p7
aVround
p8
aVposition
p9
aVpositin1
p10
aVorder
p11
aVpartner
p12
aVpid
p13
aVint_corr
p14
aVsamerace
p15
aVage_o
p16
aVrace_o
p17
aVpf_o_att
p18
aVpf_o_sin
p19
aVpf_o_int
p20
aVpf_o_fun
p21
aVpf_o_amb
p22
aVpf_o_sha
p23
aVattr_o
p24
aVsinc_o
p25
aVintel_o
p26
aVfun_o
p27
aVamb_o
p28
aVshar_o
p29
aVlike_o
p30
aVprob_o
p31
aVmet_o
p32
aVage
p33
aVfield_cd
p34
aVrace
p35
aVimprace
p36
aVimprelig
p37
aVgoal
p38
aVdate
p39
aVgo_out
p40
aVcareer_c
p41
aVsports
p42
aVtvsports
p43
aVexercise
p44
aVdining
p45
aVmuseums
p46
aVart
p47
aVhiking
p48
aVgaming
p49
aVclubbing
p50
aVreading
p51
aVtv
p52
aVtheater
p53
aVmovies
p54
aVconcerts
p55
aVmusic
p56
aVshopping
p57
aVyoga
p58
aVexphappy
p59
aVexpnum
p60
aVattr1_1
p61
aVsinc1_1
p62
aVintel1_1
p63
aVfun1_1
p64
aVamb1_1
p65
aVshar1_1
p66
aVattr4_1
p67
aVsinc4_1
p68
aVintel4_1
p69
aVfun4_1
p70
aVamb4_1
p71
aVshar4_1
p72
aVattr2_1
p73
aVsinc2_1
p74
aVintel2_1
p75
aVfun2_1
p76
aVamb2_1
p77
aVshar2_1
p78
aVattr3_1
p79
aVsinc3_1
p80
aVfun3_1
p81
aVintel3_1
p82
aVamb3_1
p83
aVattr5_1
p84
aVsinc5_1
p85
aVintel5_1
p86
aVfun5_1
p87
aVamb5_1
p88
aVattr
p89
aVsinc
p90
aVintel
p91
aVfun
p92
aVamb
p93
aVshar
p94
aVlike
p95
aVprob
p96
aVmet
p97
aVmatch_es
p98
aVattr1_s
p99
aVsinc1_s
p100
aVintel1_s
p101
aVfun1_s
p102
aVamb1_s
p103
aVshar1_s
p104
aVattr3_s
p105
aVsinc3_s
p106
aVintel3_s
p107
aVfun3_s
p108
aVamb3_s
p109
aVsatis_2
p110
aVlength
p111
aVnumdat_2
p112
aVattr7_2
p113
aVsinc7_2
p114
aVintel7_2
p115
aVfun7_2
p116
aVamb7_2
p117
aVshar7_2
p118
aVattr1_2
p119
aVsinc1_2
p120
aVintel1_2
p121
aVfun1_2
p122
aVamb1_2
p123
aVshar1_2
p124
aVattr4_2
p125
aVsinc4_2
p126
aVintel4_2
p127
aVfun4_2
p128
aVamb4_2
p129
aVshar4_2
p130
aVattr2_2
p131
aVsinc2_2
p132
aVintel2_2
p133
aVfun2_2
p134
aVamb2_2
p135
aVshar2_2
p136
aVattr3_2
p137
aVsinc3_2
p138
aVintel3_2
p139
aVfun3_2
p140
aVamb3_2
p141
aVattr5_2
p142
aVsinc5_2
p143
aVintel5_2
p144
aVfun5_2
p145
aVamb5_2
p146
aVyou_call
p147
aVthem_cal
p148
aVdate_3
p149
aVnumdat_3
p150
aVnum_in_3
p151
aVattr1_3
p152
aVsinc1_3
p153
aVintel1_3
p154
aVfun1_3
p155
aVamb1_3
p156
aVshar1_3
p157
aVattr7_3
p158
aVsinc7_3
p159
aVintel7_3
p160
aVfun7_3
p161
aVamb7_3
p162
aVshar7_3
p163
aVattr4_3
p164
aVsinc4_3
p165
aVintel4_3
p166
aVfun4_3
p167
aVamb4_3
p168
aVshar4_3
p169
aVattr2_3
p170
aVsinc2_3
p171
aVintel2_3
p172
aVfun2_3
p173
aVamb2_3
p174
aVshar2_3
p175
aVattr3_3
p176
aVsinc3_3
p177
aVintel3_3
p178
aVfun3_3
p179
aVamb3_3
p180
aVattr5_3
p181
aVsinc5_3
p182
aVintel5_3
p183
aVfun5_3
p184
aVamb5_3
p185
a.