(lp1
(lp2
S'QuadraticDiscriminantAnalysis'
p3
aS'LogisticRegression'
p4
aS'LinearDiscriminantAnalysis'
p5
aS'SVC'
p6
aS'Ensemble'
p7
aa(lp8
S'82.46%'
p9
aS'85.24%'
p10
aS'84.45%'
p11
aS'84.81%'
p12
aS'85.17%'
p13
aa.